	.file	"formula.cpp"
	.text
.Ltext0:
	.cfi_sections	.debug_frame
	.file 0 "D:/Projects/xscoresheet/util" "formula.cpp"
	.section	.text$_ZNSt11__copy_moveILb0ELb1ESt26random_access_iterator_tagE8__copy_mIKyyEEPT0_PT_S7_S5_,"x"
	.linkonce discard
	.p2align 4
	.globl	_ZNSt11__copy_moveILb0ELb1ESt26random_access_iterator_tagE8__copy_mIKyyEEPT0_PT_S7_S5_
	.def	_ZNSt11__copy_moveILb0ELb1ESt26random_access_iterator_tagE8__copy_mIKyyEEPT0_PT_S7_S5_;	.scl	2;	.type	32;	.endef
	.seh_proc	_ZNSt11__copy_moveILb0ELb1ESt26random_access_iterator_tagE8__copy_mIKyyEEPT0_PT_S7_S5_
_ZNSt11__copy_moveILb0ELb1ESt26random_access_iterator_tagE8__copy_mIKyyEEPT0_PT_S7_S5_:
.LVL0:
.LFB15279:
	.file 1 "C:/msys/mingw64/include/c++/13.1.0/bits/stl_algobase.h"
	.loc 1 433 2 view -0
	.cfi_startproc
	.loc 1 433 2 is_stmt 0 view .LVU1
	pushq	%rbx
	.seh_pushreg	%rbx
	.cfi_def_cfa_offset 16
	.cfi_offset 3, -16
	subq	$32, %rsp
	.seh_stackalloc	32
	.cfi_def_cfa_offset 48
	.seh_endprologue
	.loc 1 435 34 view .LVU2
	subq	%rcx, %rdx
.LVL1:
	.loc 1 433 2 view .LVU3
	movq	%r8, %r9
	.loc 1 435 34 view .LVU4
	movq	%rdx, %rbx
.LVL2:
	.loc 1 436 4 discriminator 1 view .LVU5
	cmpq	$8, %rdx
	jle	.L2
	.loc 1 437 23 view .LVU6
	movq	%rdx, %r8
.LVL3:
	.loc 1 437 23 view .LVU7
	movq	%rcx, %rdx
.LVL4:
	.loc 1 437 23 view .LVU8
	movq	%r9, %rcx
.LVL5:
	.loc 1 437 23 view .LVU9
	call	memmove
.LVL6:
	.loc 1 437 23 view .LVU10
	movq	%rax, %r9
.L3:
	.loc 1 441 22 view .LVU11
	leaq	(%r9,%rbx), %rax
	.loc 1 442 2 view .LVU12
	addq	$32, %rsp
	.cfi_remember_state
	.cfi_def_cfa_offset 16
	popq	%rbx
	.cfi_restore 3
	.cfi_def_cfa_offset 8
.LVL7:
	.loc 1 442 2 view .LVU13
	ret
.LVL8:
	.p2align 4,,10
	.p2align 3
.L2:
	.cfi_restore_state
	.loc 1 438 9 view .LVU14
	jne	.L3
.LVL9:
.LBB397:
.LBI397:
	.loc 1 397 2 is_stmt 1 view .LVU15
.LBB398:
	.loc 1 398 10 is_stmt 0 view .LVU16
	movq	(%rcx), %rax
	movq	%rax, (%r8)
.LVL10:
	.loc 1 398 21 view .LVU17
	jmp	.L3
.LBE398:
.LBE397:
	.cfi_endproc
.LFE15279:
	.seh_endproc
	.def	__main;	.scl	2;	.type	32;	.endef
	.section	.text.startup,"x"
	.p2align 4
	.globl	main
	.def	main;	.scl	2;	.type	32;	.endef
	.seh_proc	main
main:
.LFB12867:
	.file 2 "formula.cpp"
	.loc 2 6 13 is_stmt 1 view -0
	.cfi_startproc
	pushq	%rsi
	.seh_pushreg	%rsi
	.cfi_def_cfa_offset 16
	.cfi_offset 4, -16
	pushq	%rbx
	.seh_pushreg	%rbx
	.cfi_def_cfa_offset 24
	.cfi_offset 3, -24
	subq	$472, %rsp
	.seh_stackalloc	472
	.cfi_def_cfa_offset 496
	.seh_endprologue
	.loc 2 6 13 is_stmt 0 view .LVU19
	call	__main
.LVL11:
	.loc 2 7 2 is_stmt 1 view .LVU20
.LBB673:
.LBI673:
	.file 3 "formula.h"
	.loc 3 8 7 view .LVU21
.LBB674:
.LBI674:
	.file 4 "C:/msys/mingw64/include/c++/13.1.0/bits/stl_vector.h"
	.loc 4 526 7 view .LVU22
.LBB675:
.LBI675:
	.loc 4 312 7 view .LVU23
.LBB676:
.LBI676:
	.loc 4 137 2 view .LVU24
.LBB677:
.LBI677:
	.file 5 "C:/msys/mingw64/include/c++/13.1.0/bits/allocator.h"
	.loc 5 163 7 view .LVU25
.LBB678:
.LBI678:
	.file 6 "C:/msys/mingw64/include/c++/13.1.0/bits/new_allocator.h"
	.loc 6 88 7 view .LVU26
	.loc 6 88 7 is_stmt 0 view .LVU27
.LBE678:
.LBE677:
.LBB679:
.LBI679:
	.loc 4 99 2 is_stmt 1 view .LVU28
	.loc 4 99 2 is_stmt 0 view .LVU29
.LBE679:
.LBE676:
.LBE675:
.LBE674:
.LBE673:
	.loc 2 8 2 is_stmt 1 view .LVU30
	.loc 2 9 2 view .LVU31
.LBB680:
.LBI680:
	.file 7 "C:/msys/mingw64/include/c++/13.1.0/istream"
	.loc 7 220 7 view .LVU32
.LBB681:
	.loc 7 221 26 is_stmt 0 view .LVU33
	leaq	32(%rsp), %rsi
.LVL12:
	.loc 7 221 26 view .LVU34
	movq	.refptr._ZSt3cin(%rip), %rcx
	movq	%rsi, %rdx
.LEHB0:
	call	_ZNSi10_M_extractIdEERSiRT_
.LVL13:
.LBE681:
.LBE680:
.LBB683:
.LBB684:
	leaq	40(%rsp), %rbx
.LBE684:
.LBE683:
.LBB686:
.LBB682:
	movq	%rax, %rcx
.LVL14:
	.loc 7 221 26 view .LVU35
.LBE682:
.LBE686:
.LBB687:
.LBI683:
	.loc 7 220 7 is_stmt 1 view .LVU36
.LBB685:
	.loc 7 221 26 is_stmt 0 view .LVU37
	movq	%rbx, %rdx
	call	_ZNSi10_M_extractIdEERSiRT_
.LVL15:
	.loc 7 221 26 view .LVU38
.LBE685:
.LBE687:
	.loc 2 10 2 is_stmt 1 view .LVU39
	.loc 2 10 13 is_stmt 0 view .LVU40
	movdqu	.LC0(%rip), %xmm0
	.loc 6 147 48 view .LVU41
	movl	$64, %ecx
.LBB688:
.LBB689:
	.file 8 "C:/msys/mingw64/include/c++/13.1.0/bit"
	.loc 8 87 44 view .LVU42
	movq	%rsi, 72(%rsp)
.LBE689:
.LBE688:
	.loc 2 10 13 view .LVU43
	movq	$8, 64(%rsp)
.LVL16:
.LBB690:
.LBI688:
	.loc 8 81 5 is_stmt 1 view .LVU44
	.loc 8 81 5 is_stmt 0 view .LVU45
.LBE690:
	.loc 2 10 13 view .LVU46
	movq	$8, 80(%rsp)
.LVL17:
.LBB691:
.LBI691:
	.loc 8 81 5 is_stmt 1 view .LVU47
.LBB692:
	.loc 8 87 44 is_stmt 0 view .LVU48
	movq	%rbx, 88(%rsp)
.LBE692:
.LBE691:
	.loc 2 10 13 view .LVU49
	movq	$3, 96(%rsp)
	movq	$1, 104(%rsp)
.LVL18:
.LBB693:
.LBI693:
	.loc 4 783 7 is_stmt 1 view .LVU50
.LBB694:
.LBI694:
	.file 9 "C:/msys/mingw64/include/c++/13.1.0/initializer_list"
	.loc 9 77 7 view .LVU51
	.loc 9 77 7 is_stmt 0 view .LVU52
.LBE694:
.LBB695:
.LBI695:
	.file 10 "C:/msys/mingw64/include/c++/13.1.0/bits/vector.tcc"
	.loc 10 315 7 is_stmt 1 view .LVU53
.LBB696:
.LBB697:
.LBB698:
.LBI698:
	.loc 4 1902 7 view .LVU54
.LBB699:
.LBI699:
	.loc 5 167 7 view .LVU55
.LBB700:
.LBI700:
	.loc 6 92 7 view .LVU56
	.loc 6 92 7 is_stmt 0 view .LVU57
.LBE700:
.LBE699:
.LBB701:
.LBI701:
	.loc 5 184 7 is_stmt 1 view .LVU58
	.loc 5 184 7 is_stmt 0 view .LVU59
.LBE701:
.LBE698:
.LBB702:
.LBI702:
	.loc 4 1611 2 is_stmt 1 view .LVU60
	.loc 4 1611 2 is_stmt 0 view .LVU61
.LBE702:
.LBE697:
.LBE696:
.LBE695:
.LBE693:
	.loc 2 10 13 view .LVU62
	movups	%xmm0, 48(%rsp)
	.loc 6 147 48 view .LVU63
	call	_Znwy
.LVL19:
.LEHE0:
.LBB731:
.LBB729:
.LBB727:
.LBB725:
.LBB723:
.LBB703:
.LBB704:
.LBB705:
.LBB706:
.LBB707:
.LBB708:
.LBB709:
.LBB710:
.LBB711:
.LBB712:
	.loc 1 506 30 view .LVU64
	leaq	48(%rsp), %rsi
.LVL20:
	.loc 1 506 30 view .LVU65
.LBE712:
.LBE711:
.LBE710:
.LBE709:
.LBE708:
.LBE707:
.LBE706:
.LBE705:
.LBE704:
.LBE703:
.LBE723:
.LBE725:
.LBE727:
.LBE729:
.LBE731:
	.loc 6 147 48 view .LVU66
	movq	%rax, %rbx
.LVL21:
.LBB732:
.LBB730:
.LBB728:
.LBB726:
.LBB724:
.LBB722:
.LBB721:
.LBI704:
	.file 11 "C:/msys/mingw64/include/c++/13.1.0/bits/stl_uninitialized.h"
	.loc 11 366 5 is_stmt 1 view .LVU67
.LBB720:
.LBI705:
	.loc 11 163 5 view .LVU68
.LBB719:
.LBB718:
.LBI707:
	.loc 11 145 9 view .LVU69
.LBB717:
.LBI708:
	.loc 1 624 5 view .LVU70
.LBB716:
.LBI709:
	.loc 1 538 5 view .LVU71
.LBB715:
.LBI710:
	.loc 1 532 5 view .LVU72
.LBB714:
.LBI711:
	.loc 1 497 5 view .LVU73
.LBB713:
	.loc 1 506 30 is_stmt 0 view .LVU74
	leaq	112(%rsp), %rdx
.LVL22:
	.loc 1 506 30 view .LVU75
	movq	%rax, %r8
	movq	%rsi, %rcx
	call	_ZNSt11__copy_moveILb0ELb1ESt26random_access_iterator_tagE8__copy_mIKyyEEPT0_PT_S7_S5_
.LVL23:
	.loc 1 506 30 view .LVU76
.LBE713:
.LBE714:
.LBE715:
.LBE716:
.LBE717:
.LBE718:
.LBE719:
.LBE720:
.LBE721:
.LBE722:
.LBE724:
	.loc 10 332 55 view .LVU77
	leaq	64(%rbx), %r10
.LVL24:
	.loc 10 332 55 view .LVU78
.LBE726:
.LBE728:
.LBE730:
.LBE732:
	.loc 2 20 2 is_stmt 1 view .LVU79
	.loc 2 21 2 view .LVU80
.LBB733:
.LBI733:
	.loc 3 11 3 view .LVU81
	.loc 3 11 18 view .LVU82
.LBB734:
.LBI734:
	.file 12 "C:/msys/mingw64/include/c++/13.1.0/array"
	.loc 12 115 7 view .LVU83
.LBB735:
.LBI735:
	.loc 1 1152 5 view .LVU84
.LBB736:
.LBI736:
	.loc 1 1117 5 view .LVU85
.LBB737:
.LBI737:
	.loc 1 1117 5 view .LVU86
.LBB738:
.LBI738:
	.loc 1 976 5 view .LVU87
.LBB739:
.LBI739:
	.loc 1 926 5 view .LVU88
.LBB740:
	.loc 1 930 22 discriminator 1 view .LVU89
	movq	%rsi, %rax
	leaq	464(%rsp), %rdx
.LVL25:
	.loc 1 930 22 is_stmt 0 discriminator 1 view .LVU90
	movddup	.LC2(%rip), %xmm0
.LVL26:
.L9:
	.loc 1 931 11 view .LVU91
	movups	%xmm0, (%rax)
	.loc 1 930 7 is_stmt 1 discriminator 2 view .LVU92
	.loc 1 930 22 discriminator 1 view .LVU93
	addq	$32, %rax
	.loc 1 931 11 is_stmt 0 view .LVU94
	movups	%xmm0, -16(%rax)
	.loc 1 930 7 is_stmt 1 discriminator 2 view .LVU95
	.loc 1 930 22 discriminator 1 view .LVU96
	cmpq	%rdx, %rax
	jne	.L9
.LBE740:
.LBE739:
.LBE738:
.LBE737:
.LBE736:
.LBE735:
.LBE734:
.LBE733:
.LBB741:
.LBB742:
.LBB743:
	.loc 3 47 24 is_stmt 0 view .LVU97
	movq	%rbx, %rcx
	.loc 3 46 11 view .LVU98
	leaq	_ZN11xscoresheet7formula5stackE(%rip), %rdx
.LVL27:
	.loc 3 49 4 discriminator 1 view .LVU99
	leaq	.L12(%rip), %r8
.LVL28:
	.p2align 4,,10
	.p2align 3
.L22:
	.loc 3 49 4 is_stmt 1 view .LVU100
	.loc 3 49 12 is_stmt 0 discriminator 1 view .LVU101
	movq	(%rcx), %rax
.LBB744:
.LBB745:
	.file 13 "C:/msys/mingw64/include/c++/13.1.0/bits/stl_iterator.h"
	.loc 13 1111 2 view .LVU102
	leaq	8(%rcx), %r9
.LBE745:
.LBE744:
	.loc 3 49 4 discriminator 1 view .LVU103
	cmpl	$8, %eax
	ja	.L10
	.loc 3 49 4 discriminator 1 view .LVU104
	movl	%eax, %eax
	movslq	(%r8,%rax,4), %rax
	addq	%r8, %rax
	jmp	*%rax
	.section .rdata,"dr"
	.align 4
.L12:
	.long	.L19-.L12
	.long	.L18-.L12
	.long	.L17-.L12
	.long	.L16-.L12
	.long	.L10-.L12
	.long	.L15-.L12
	.long	.L14-.L12
	.long	.L13-.L12
	.long	.L11-.L12
	.section	.text.startup,"x"
	.p2align 4,,10
	.p2align 3
.L11:
	.loc 3 57 5 is_stmt 1 view .LVU105
	.loc 3 57 17 view .LVU106
.LVL29:
.LBB746:
.LBI746:
	.loc 13 1109 7 view .LVU107
	.loc 13 1109 7 is_stmt 0 view .LVU108
.LBE746:
.LBB747:
.LBI747:
	.loc 8 81 5 is_stmt 1 view .LVU109
	.loc 8 81 5 is_stmt 0 view .LVU110
.LBE747:
	.loc 3 57 25 discriminator 3 view .LVU111
	movq	8(%rcx), %rax
	.loc 3 57 23 discriminator 3 view .LVU112
	addq	$8, %rdx
.LVL30:
	.loc 3 57 23 discriminator 3 view .LVU113
	addq	$8, %r9
	.loc 3 57 25 discriminator 3 view .LVU114
	movsd	(%rax), %xmm0
	.loc 3 57 23 discriminator 3 view .LVU115
	movsd	%xmm0, (%rdx)
	.loc 3 57 67 is_stmt 1 discriminator 3 view .LVU116
.LVL31:
	.p2align 4,,10
	.p2align 3
.L10:
	.loc 3 59 4 view .LVU117
.LBB748:
.LBI748:
	.loc 13 1109 7 view .LVU118
.LBB749:
	.loc 13 1111 2 is_stmt 0 view .LVU119
	movq	%r9, %rcx
.LVL32:
	.loc 13 1111 2 view .LVU120
.LBE749:
.LBE748:
	.loc 3 48 13 is_stmt 1 view .LVU121
.LBB750:
.LBI750:
	.file 14 "C:/msys/mingw64/include/c++/13.1.0/bits/range_access.h"
	.loc 14 85 5 view .LVU122
.LBB751:
.LBI751:
	.loc 4 898 7 view .LVU123
.LBB752:
.LBI752:
	.loc 13 1076 7 view .LVU124
	.loc 13 1076 7 is_stmt 0 view .LVU125
.LBE752:
.LBE751:
.LBE750:
	.loc 3 48 13 discriminator 2 view .LVU126
	cmpq	%r9, %r10
	jne	.L22
	.loc 3 61 3 is_stmt 1 view .LVU127
.LVL33:
	.loc 3 61 3 is_stmt 0 view .LVU128
.LBE743:
.LBE742:
.LBE741:
.LBB767:
.LBI767:
	.file 15 "C:/msys/mingw64/include/c++/13.1.0/ostream"
	.loc 15 222 7 is_stmt 1 view .LVU129
.LBB768:
	.loc 15 223 25 is_stmt 0 view .LVU130
	movsd	(%rdx), %xmm1
	movq	.refptr._ZSt4cout(%rip), %rcx
.LEHB1:
	call	_ZNSo9_M_insertIdEERSoT_
.LVL34:
.LEHE1:
	.loc 15 223 25 view .LVU131
.LBE768:
.LBE767:
	.loc 2 23 2 is_stmt 1 view .LVU132
.LBB769:
.LBI769:
	.loc 3 8 7 view .LVU133
.LBB770:
.LBI770:
	.loc 4 728 7 view .LVU134
.LBB771:
.LBI771:
	.loc 4 298 7 view .LVU135
	.loc 4 298 7 is_stmt 0 view .LVU136
.LBE771:
.LBB772:
.LBI772:
	.file 16 "C:/msys/mingw64/include/c++/13.1.0/bits/alloc_traits.h"
	.loc 16 944 5 is_stmt 1 view .LVU137
	.loc 16 944 5 is_stmt 0 view .LVU138
.LBE772:
.LBB773:
.LBI773:
	.loc 4 364 7 is_stmt 1 view .LVU139
.LBB774:
.LBI774:
	.loc 4 383 7 view .LVU140
.LBB775:
.LBB776:
.LBI776:
	.loc 16 515 7 view .LVU141
.LBB777:
.LBI777:
	.loc 5 203 7 view .LVU142
.LBB778:
.LBI778:
	.loc 6 152 7 view .LVU143
.LBB779:
	.loc 6 168 26 is_stmt 0 view .LVU144
	movl	$64, %edx
	movq	%rbx, %rcx
	call	_ZdlPvy
.LVL35:
	.loc 6 168 26 view .LVU145
.LBE779:
.LBE778:
.LBE777:
.LBE776:
.LBE775:
.LBE774:
.LBB780:
.LBI780:
	.loc 4 133 14 is_stmt 1 view .LVU146
.LBB781:
.LBI781:
	.loc 5 184 7 view .LVU147
	.loc 5 184 7 is_stmt 0 view .LVU148
.LBE781:
.LBE780:
.LBE773:
.LBE770:
.LBE769:
	.loc 2 24 1 view .LVU149
	xorl	%eax, %eax
	addq	$472, %rsp
	.cfi_remember_state
	.cfi_def_cfa_offset 24
	popq	%rbx
	.cfi_restore 3
	.cfi_def_cfa_offset 16
.LVL36:
	.loc 2 24 1 view .LVU150
	popq	%rsi
	.cfi_restore 4
	.cfi_def_cfa_offset 8
	ret
.LVL37:
	.p2align 4,,10
	.p2align 3
.L13:
	.cfi_restore_state
.LBB782:
.LBB766:
.LBB765:
	.loc 3 56 5 is_stmt 1 view .LVU151
	.loc 3 56 17 view .LVU152
.LBB753:
.LBI744:
	.loc 13 1109 7 view .LVU153
	.loc 13 1109 7 is_stmt 0 view .LVU154
.LBE753:
.LBB754:
.LBI754:
	.loc 8 81 5 is_stmt 1 view .LVU155
.LBB755:
	.loc 8 87 44 is_stmt 0 view .LVU156
	movq	8(%rcx), %rax
.LBE755:
.LBE754:
	.loc 3 56 23 discriminator 3 view .LVU157
	addq	$8, %rdx
.LVL38:
	.loc 3 56 23 discriminator 3 view .LVU158
	addq	$8, %r9
	movq	%rax, (%rdx)
	.loc 3 56 65 is_stmt 1 discriminator 3 view .LVU159
.LVL39:
	.loc 3 56 65 is_stmt 0 view .LVU160
	jmp	.L10
.LVL40:
	.p2align 4,,10
	.p2align 3
.L17:
	.loc 3 52 5 is_stmt 1 view .LVU161
	.loc 3 52 15 view .LVU162
	.loc 3 52 21 view .LVU163
	.loc 3 52 25 is_stmt 0 view .LVU164
	movsd	-8(%rdx), %xmm0
	mulsd	(%rdx), %xmm0
	.loc 3 52 15 view .LVU165
	subq	$8, %rdx
.LVL41:
	.loc 3 52 25 view .LVU166
	movsd	%xmm0, (%rdx)
	.loc 3 52 35 is_stmt 1 view .LVU167
	jmp	.L10
	.p2align 4,,10
	.p2align 3
.L19:
	.loc 3 50 5 view .LVU168
	.loc 3 50 15 view .LVU169
.LVL42:
	.loc 3 50 21 view .LVU170
	.loc 3 50 25 is_stmt 0 view .LVU171
	movsd	-8(%rdx), %xmm0
	addsd	(%rdx), %xmm0
	.loc 3 50 15 view .LVU172
	subq	$8, %rdx
.LVL43:
	.loc 3 50 25 view .LVU173
	movsd	%xmm0, (%rdx)
	.loc 3 50 35 is_stmt 1 view .LVU174
	jmp	.L10
	.p2align 4,,10
	.p2align 3
.L18:
	.loc 3 51 5 view .LVU175
	.loc 3 51 15 view .LVU176
.LVL44:
	.loc 3 51 21 view .LVU177
	.loc 3 51 25 is_stmt 0 view .LVU178
	movsd	-8(%rdx), %xmm0
	subsd	(%rdx), %xmm0
	.loc 3 51 15 view .LVU179
	subq	$8, %rdx
.LVL45:
	.loc 3 51 25 view .LVU180
	movsd	%xmm0, (%rdx)
	.loc 3 51 35 is_stmt 1 view .LVU181
	jmp	.L10
	.p2align 4,,10
	.p2align 3
.L15:
	.loc 3 54 5 view .LVU182
	.loc 3 54 15 view .LVU183
.LBB756:
.LBB757:
	.loc 1 262 7 is_stmt 0 view .LVU184
	movsd	(%rdx), %xmm0
	.loc 1 264 14 view .LVU185
	comisd	-8(%rdx), %xmm0
.LBE757:
.LBE756:
	.loc 3 54 15 view .LVU186
	leaq	-8(%rdx), %rax
.LVL46:
	.loc 3 54 21 is_stmt 1 view .LVU187
.LBB758:
.LBI756:
	.loc 1 257 5 view .LVU188
.L35:
	.loc 1 257 5 is_stmt 0 view .LVU189
.LBE758:
.LBB759:
.LBB760:
	.loc 1 240 14 view .LVU190
	movq	%rax, %rcx
.LVL47:
	.loc 1 240 14 view .LVU191
	cmova	%rdx, %rcx
.LBE760:
.LBE759:
	.loc 3 55 36 discriminator 1 view .LVU192
	movsd	(%rcx), %xmm0
	.loc 3 55 25 discriminator 1 view .LVU193
	movsd	%xmm0, -8(%rdx)
	.loc 3 55 50 is_stmt 1 discriminator 1 view .LVU194
	.loc 3 55 15 is_stmt 0 view .LVU195
	movq	%rax, %rdx
	.loc 3 55 50 view .LVU196
	jmp	.L10
.LVL48:
	.p2align 4,,10
	.p2align 3
.L16:
	.loc 3 53 5 is_stmt 1 view .LVU197
	.loc 3 53 15 view .LVU198
	.loc 3 53 21 view .LVU199
	.loc 3 53 25 is_stmt 0 view .LVU200
	movsd	-8(%rdx), %xmm0
	.loc 3 53 15 view .LVU201
	subq	$8, %rdx
.LVL49:
	.loc 3 53 25 view .LVU202
	divsd	8(%rdx), %xmm0
	movsd	%xmm0, (%rdx)
	.loc 3 53 35 is_stmt 1 view .LVU203
	jmp	.L10
	.p2align 4,,10
	.p2align 3
.L14:
	.loc 3 55 5 view .LVU204
	.loc 3 55 15 view .LVU205
.LBB763:
.LBB761:
	.loc 1 238 7 is_stmt 0 view .LVU206
	movsd	-8(%rdx), %xmm0
.LBE761:
.LBE763:
	.loc 3 55 15 view .LVU207
	leaq	-8(%rdx), %rax
.LVL50:
	.loc 3 55 21 is_stmt 1 view .LVU208
.LBB764:
.LBI759:
	.loc 1 233 5 view .LVU209
.LBB762:
	.loc 1 240 14 is_stmt 0 view .LVU210
	comisd	(%rdx), %xmm0
	jmp	.L35
.LVL51:
.L28:
	.loc 1 240 14 view .LVU211
.LBE762:
.LBE764:
.LBE765:
.LBE766:
.LBE782:
	.loc 2 21 25 discriminator 5 view .LVU212
	movq	%rax, %rsi
.LVL52:
.LBB783:
.LBI783:
	.loc 3 8 7 is_stmt 1 view .LVU213
.LBB784:
.LBI784:
	.loc 4 728 7 view .LVU214
.LBB785:
.LBI785:
	.loc 4 298 7 view .LVU215
	.loc 4 298 7 is_stmt 0 view .LVU216
.LBE785:
.LBB786:
.LBI786:
	.loc 16 944 5 is_stmt 1 view .LVU217
	.loc 16 944 5 is_stmt 0 view .LVU218
.LBE786:
.LBB787:
.LBI787:
	.loc 4 364 7 is_stmt 1 view .LVU219
.LBB788:
.LBI788:
	.loc 4 383 7 view .LVU220
	jmp	.L8
.LVL53:
.L27:
.LBB789:
.LBB790:
.LBB791:
.LBB792:
.LBB793:
	.loc 6 168 26 is_stmt 0 view .LVU221
	movl	$64, %edx
	movq	%rbx, %rcx
	movq	%rax, %rsi
.LVL54:
	.loc 6 168 26 view .LVU222
.LBE793:
.LBE792:
.LBE791:
.LBE790:
.LBE789:
.LBE788:
.LBE787:
.LBE784:
	.loc 3 8 7 is_stmt 1 view .LVU223
.LBB805:
	.loc 4 728 7 view .LVU224
.LBB802:
	.loc 4 298 7 view .LVU225
	.loc 4 298 7 is_stmt 0 view .LVU226
.LBE802:
.LBB803:
	.loc 16 944 5 is_stmt 1 view .LVU227
	.loc 16 944 5 is_stmt 0 view .LVU228
.LBE803:
.LBB804:
	.loc 4 364 7 is_stmt 1 view .LVU229
.LBB799:
	.loc 4 383 7 view .LVU230
.LBB798:
.LBB797:
.LBI790:
	.loc 16 515 7 view .LVU231
.LBB796:
.LBI791:
	.loc 5 203 7 view .LVU232
.LBB795:
.LBI792:
	.loc 6 152 7 view .LVU233
.LBB794:
	.loc 6 168 26 is_stmt 0 view .LVU234
	call	_ZdlPvy
.LVL55:
.L8:
	.loc 6 168 26 view .LVU235
.LBE794:
.LBE795:
.LBE796:
.LBE797:
.LBE798:
.LBE799:
.LBB800:
.LBI800:
	.loc 4 133 14 is_stmt 1 view .LVU236
.LBB801:
.LBI801:
	.loc 5 184 7 view .LVU237
	.loc 5 184 7 is_stmt 0 view .LVU238
	movq	%rsi, %rcx
.LEHB2:
	call	_Unwind_Resume
	nop
.LVL56:
.LEHE2:
.LBE801:
.LBE800:
.LBE804:
.LBE805:
.LBE783:
	.cfi_endproc
.LFE12867:
	.def	__gxx_personality_seh0;	.scl	2;	.type	32;	.endef
	.seh_handler	__gxx_personality_seh0, @unwind, @except
	.seh_handlerdata
.LLSDA12867:
	.byte	0xff
	.byte	0xff
	.byte	0x1
	.uleb128 .LLSDACSE12867-.LLSDACSB12867
.LLSDACSB12867:
	.uleb128 .LEHB0-.LFB12867
	.uleb128 .LEHE0-.LEHB0
	.uleb128 .L28-.LFB12867
	.uleb128 0
	.uleb128 .LEHB1-.LFB12867
	.uleb128 .LEHE1-.LEHB1
	.uleb128 .L27-.LFB12867
	.uleb128 0
	.uleb128 .LEHB2-.LFB12867
	.uleb128 .LEHE2-.LEHB2
	.uleb128 0
	.uleb128 0
.LLSDACSE12867:
	.section	.text.startup,"x"
	.seh_endproc
	.p2align 4
	.def	_GLOBAL__sub_I__ZN11xscoresheet7formula5stackE;	.scl	3;	.type	32;	.endef
	.seh_proc	_GLOBAL__sub_I__ZN11xscoresheet7formula5stackE
_GLOBAL__sub_I__ZN11xscoresheet7formula5stackE:
.LFB15914:
	.loc 2 24 1 is_stmt 1 view -0
	.cfi_startproc
	.seh_endprologue
.LBB822:
.LBI822:
	.loc 2 24 1 view .LVU240
.LVL57:
.LBB823:
.LBI823:
	.loc 3 11 3 view .LVU241
	.loc 3 11 18 view .LVU242
.LBB824:
.LBB825:
.LBI825:
	.loc 12 115 7 view .LVU243
.LBB826:
.LBI826:
	.loc 1 1152 5 view .LVU244
.LBB827:
.LBI827:
	.loc 1 1117 5 view .LVU245
.LBB828:
.LBI828:
	.loc 1 1117 5 view .LVU246
.LBB829:
.LBI829:
	.loc 1 976 5 view .LVU247
.LBB830:
.LBI830:
	.loc 1 926 5 view .LVU248
.LBB831:
	.loc 1 930 22 discriminator 1 view .LVU249
	leaq	_ZN11xscoresheet7formula4varsE(%rip), %rax
	movddup	.LC2(%rip), %xmm0
	leaq	416(%rax), %rdx
.LVL58:
.L37:
	.loc 1 931 11 is_stmt 0 view .LVU250
	movups	%xmm0, (%rax)
	.loc 1 930 7 is_stmt 1 discriminator 2 view .LVU251
	.loc 1 930 22 discriminator 1 view .LVU252
	addq	$32, %rax
	.loc 1 931 11 is_stmt 0 view .LVU253
	movups	%xmm0, -16(%rax)
	.loc 1 930 7 is_stmt 1 discriminator 2 view .LVU254
	.loc 1 930 22 discriminator 1 view .LVU255
	cmpq	%rdx, %rax
	jne	.L37
.LBE831:
.LBE830:
.LBE829:
.LBE828:
.LBE827:
.LBE826:
.LBE825:
.LBE824:
.LBE823:
.LBE822:
	.loc 2 24 1 is_stmt 0 view .LVU256
	ret
	.cfi_endproc
.LFE15914:
	.seh_endproc
	.section	.ctors,"w"
	.align 8
	.quad	_GLOBAL__sub_I__ZN11xscoresheet7formula5stackE
	.globl	_ZN11xscoresheet7formula4varsE
	.bss
	.align 32
_ZN11xscoresheet7formula4varsE:
	.space 416
	.globl	_ZN11xscoresheet7formula5stackE
	.align 32
_ZN11xscoresheet7formula5stackE:
	.space 1600
	.section .rdata,"dr"
	.align 16
.LC0:
	.quad	7
	.quad	4626498132421828097
	.align 8
.LC2:
	.long	0
	.long	2146959360
	.text
.Letext0:
	.file 17 "C:/msys/mingw64/include/vadefs.h"
	.file 18 "C:/msys/mingw64/include/corecrt.h"
	.file 19 "C:/msys/mingw64/include/locale.h"
	.file 20 "C:/msys/mingw64/include/c++/13.1.0/cstring"
	.file 21 "C:/msys/mingw64/include/c++/13.1.0/cwchar"
	.file 22 "C:/msys/mingw64/include/c++/13.1.0/type_traits"
	.file 23 "C:/msys/mingw64/include/c++/13.1.0/x86_64-w64-mingw32/bits/c++config.h"
	.file 24 "C:/msys/mingw64/include/c++/13.1.0/concepts"
	.file 25 "C:/msys/mingw64/include/c++/13.1.0/bits/iterator_concepts.h"
	.file 26 "C:/msys/mingw64/include/c++/13.1.0/ranges"
	.file 27 "C:/msys/mingw64/include/c++/13.1.0/compare"
	.file 28 "C:/msys/mingw64/include/c++/13.1.0/bits/basic_string.h"
	.file 29 "C:/msys/mingw64/include/c++/13.1.0/bits/charconv.h"
	.file 30 "C:/msys/mingw64/include/c++/13.1.0/bits/stl_iterator_base_types.h"
	.file 31 "C:/msys/mingw64/include/c++/13.1.0/bits/stl_construct.h"
	.file 32 "C:/msys/mingw64/include/c++/13.1.0/bits/char_traits.h"
	.file 33 "C:/msys/mingw64/include/c++/13.1.0/clocale"
	.file 34 "C:/msys/mingw64/include/c++/13.1.0/debug/debug.h"
	.file 35 "C:/msys/mingw64/include/c++/13.1.0/numbers"
	.file 36 "C:/msys/mingw64/include/c++/13.1.0/string_view"
	.file 37 "C:/msys/mingw64/include/c++/13.1.0/cstdlib"
	.file 38 "C:/msys/mingw64/include/c++/13.1.0/cstdio"
	.file 39 "C:/msys/mingw64/include/c++/13.1.0/cstddef"
	.file 40 "C:/msys/mingw64/include/c++/13.1.0/bits/memory_resource.h"
	.file 41 "C:/msys/mingw64/include/c++/13.1.0/cmath"
	.file 42 "C:/msys/mingw64/include/c++/13.1.0/bits/stringfwd.h"
	.file 43 "C:/msys/mingw64/include/c++/13.1.0/cwctype"
	.file 44 "C:/msys/mingw64/include/c++/13.1.0/bits/exception_ptr.h"
	.file 45 "C:/msys/mingw64/include/c++/13.1.0/system_error"
	.file 46 "C:/msys/mingw64/include/c++/13.1.0/ctime"
	.file 47 "C:/msys/mingw64/include/c++/13.1.0/bits/ostream.tcc"
	.file 48 "C:/msys/mingw64/include/c++/13.1.0/bits/istream.tcc"
	.file 49 "C:/msys/mingw64/include/c++/13.1.0/bits/shared_ptr_base.h"
	.file 50 "C:/msys/mingw64/include/c++/13.1.0/bits/regex_constants.h"
	.file 51 "C:/msys/mingw64/include/c++/13.1.0/cstdint"
	.file 52 "C:/msys/mingw64/include/c++/13.1.0/bits/chrono.h"
	.file 53 "C:/msys/mingw64/include/c++/13.1.0/bits/ranges_cmp.h"
	.file 54 "C:/msys/mingw64/include/c++/13.1.0/bits/fs_fwd.h"
	.file 55 "C:/msys/mingw64/include/c++/13.1.0/bits/fs_path.h"
	.file 56 "C:/msys/mingw64/include/c++/13.1.0/bits/parse_numbers.h"
	.file 57 "C:/msys/mingw64/include/c++/13.1.0/charconv"
	.file 58 "C:/msys/mingw64/include/c++/13.1.0/x86_64-w64-mingw32/bits/error_constants.h"
	.file 59 "C:/msys/mingw64/include/c++/13.1.0/bits/stl_pair.h"
	.file 60 "C:/msys/mingw64/include/c++/13.1.0/format"
	.file 61 "C:/msys/mingw64/include/c++/13.1.0/bits/std_abs.h"
	.file 62 "C:/msys/mingw64/include/c++/13.1.0/csetjmp"
	.file 63 "C:/msys/mingw64/include/c++/13.1.0/cstdarg"
	.file 64 "C:/msys/mingw64/include/c++/13.1.0/functional"
	.file 65 "C:/msys/mingw64/include/c++/13.1.0/csignal"
	.file 66 "C:/msys/mingw64/include/c++/13.1.0/fenv.h"
	.file 67 "C:/msys/mingw64/include/c++/13.1.0/cfenv"
	.file 68 "C:/msys/mingw64/include/c++/13.1.0/cinttypes"
	.file 69 "C:/msys/mingw64/include/c++/13.1.0/cuchar"
	.file 70 "C:/msys/mingw64/include/c++/13.1.0/iosfwd"
	.file 71 "C:/msys/mingw64/include/c++/13.1.0/iostream"
	.file 72 "C:/msys/mingw64/include/c++/13.1.0/future"
	.file 73 "C:/msys/mingw64/include/c++/13.1.0/bits/functexcept.h"
	.file 74 "C:/msys/mingw64/include/c++/13.1.0/bits/stl_iterator_base_funcs.h"
	.file 75 "C:/msys/mingw64/include/c++/13.1.0/bits/cpp_type_traits.h"
	.file 76 "C:/msys/mingw64/include/string.h"
	.file 77 "C:/msys/mingw64/include/wchar.h"
	.file 78 "C:/msys/mingw64/include/swprintf.inl"
	.file 79 "C:/msys/mingw64/include/c++/13.1.0/bits/predefined_ops.h"
	.file 80 "C:/msys/mingw64/include/c++/13.1.0/ext/alloc_traits.h"
	.file 81 "C:/msys/mingw64/include/stdio.h"
	.file 82 "C:/msys/mingw64/include/c++/13.1.0/bits/ptr_traits.h"
	.file 83 "C:/msys/mingw64/include/stdlib.h"
	.file 84 "C:/msys/mingw64/include/stddef.h"
	.file 85 "C:/msys/mingw64/include/math.h"
	.file 86 "C:/msys/mingw64/include/signal.h"
	.file 87 "C:/msys/mingw64/include/time.h"
	.file 88 "C:/msys/mingw64/include/wctype.h"
	.file 89 "C:/msys/mingw64/include/stdint.h"
	.file 90 "__config.h"
	.file 91 "C:/msys/mingw64/include/c++/13.1.0/stdlib.h"
	.file 92 "C:/msys/mingw64/include/setjmp.h"
	.file 93 "C:/msys/mingw64/include/c++/13.1.0/pstl/execution_defs.h"
	.file 94 "C:/msys/mingw64/include/c++/13.1.0/bits/ranges_util.h"
	.file 95 "C:/msys/mingw64/include/fenv.h"
	.file 96 "C:/msys/mingw64/include/inttypes.h"
	.file 97 "C:/msys/mingw64/include/uchar.h"
	.file 98 "C:/msys/mingw64/include/c++/13.1.0/new"
	.file 99 "C:/msys/mingw64/include/c++/13.1.0/ext/concurrence.h"
	.section	.rdata$.refptr._ZSt4cout, "dr"
	.globl	.refptr._ZSt4cout
	.linkonce	discard
.refptr._ZSt4cout:
	.quad	_ZSt4cout
	.section	.rdata$.refptr._ZSt3cin, "dr"
	.globl	.refptr._ZSt3cin
	.linkonce	discard
.refptr._ZSt3cin:
	.quad	_ZSt3cin
